; ModuleID = 'bench/linux/original/printk_safe.ll'
source_filename = "bench/linux/original/printk_safe.ll"
target datalayout = "e-m:e-p270:32:32-p271:32:32-p272:64:64-i64:64-i128:128-f80:128-n8:16:32:64-S128"
target triple = "x86_64-unknown-linux-gnu"

module asm ".section \22.export_symbol\22,\22a\22 ; __export_symbol_vprintk: ; .asciz \22\22 ; .asciz \22\22 ; .balign 8 ; .quad vprintk ; .previous"

%struct.pcpu_hot = type { %union.anon }
%union.anon = type { %struct.anon, [16 x i8] }
%struct.anon = type { ptr, i32, i32, i64, i64, ptr, i16, i8 }

@printk_context = internal global i32 0, section ".data..percpu", align 4
@__UNIQUE_ID___addressable_vprintk360 = internal global ptr @vprintk, section ".discard.addressable", align 8
@pcpu_hot = external dso_local global %struct.pcpu_hot, section ".data..percpu..shared_aligned", align 64
@llvm.compiler.used = appending global [1 x ptr] [ptr @__UNIQUE_ID___addressable_vprintk360], section "llvm.metadata"

; Function Attrs: fn_ret_thunk_extern nounwind null_pointer_is_valid
define dso_local void @__printk_safe_enter() local_unnamed_addr #0 align 16 {
  tail call void asm sideeffect "incl %gs:$0", "=*m,*m,~{dirflag},~{fpsr},~{flags}"(ptr nonnull elementtype(i32) @printk_context, ptr nonnull elementtype(i32) @printk_context) #2, !srcloc !5
  ret void
}

; Function Attrs: fn_ret_thunk_extern nounwind null_pointer_is_valid
define dso_local void @__printk_safe_exit() local_unnamed_addr #0 align 16 {
  tail call void asm sideeffect "decl %gs:$0", "=*m,*m,~{dirflag},~{fpsr},~{flags}"(ptr nonnull elementtype(i32) @printk_context, ptr nonnull elementtype(i32) @printk_context) #2, !srcloc !6
  ret void
}

; Function Attrs: fn_ret_thunk_extern nounwind null_pointer_is_valid
define dso_local i32 @vprintk(ptr noundef %0, ptr noundef %1) #0 align 16 {
  %3 = tail call i32 asm sideeffect "movl %gs:$1, $0", "=r,*m,~{dirflag},~{fpsr},~{flags}"(ptr nonnull elementtype(i32) @printk_context) #2, !srcloc !7
  %4 = icmp eq i32 %3, 0
  br i1 %4, label %5, label %9

5:                                                ; preds = %2
  %6 = tail call i32 asm "movl %gs:$1, $0", "=r,*m,~{dirflag},~{fpsr},~{flags}"(ptr nonnull elementtype(i32) getelementptr inbounds (%struct.pcpu_hot, ptr @pcpu_hot, i64 0, i32 0, i32 0, i32 1)) #3, !srcloc !8
  %7 = and i32 %6, 15728640
  %8 = icmp eq i32 %7, 0
  br i1 %8, label %11, label %9

9:                                                ; preds = %5, %2
  %10 = tail call i32 @vprintk_deferred(ptr noundef %0, ptr noundef %1) #2
  br label %13

11:                                               ; preds = %5
  %12 = tail call i32 @vprintk_default(ptr noundef %0, ptr noundef %1) #2
  br label %13

13:                                               ; preds = %11, %9
  %14 = phi i32 [ %10, %9 ], [ %12, %11 ]
  ret i32 %14
}

; Function Attrs: null_pointer_is_valid
declare dso_local i32 @vprintk_deferred(ptr noundef, ptr noundef) local_unnamed_addr #1

; Function Attrs: null_pointer_is_valid
declare dso_local i32 @vprintk_default(ptr noundef, ptr noundef) local_unnamed_addr #1


!llvm.module.flags = !{!0, !1, !2, !3, !4}

!0 = !{i32 1, !"wchar_size", i32 2}
!1 = !{i32 8, !"cf-protection-branch", i32 1}
!2 = !{i32 4, !"function_return_thunk_extern", i32 1}
!3 = !{i32 4, !"indirect_branch_cs_prefix", i32 1}
!4 = !{i32 4, !"SkipRaxSetup", i32 1}
!5 = !{i64 2154749697}
!6 = !{i64 2154759814}
!7 = !{i64 2154765513}
!8 = !{i64 2147798602}
